target datalayout = "e-m:e-p270:32:32-p271:32:32-p272:64:64-i64:64-i128:128-f80:128-n8:16:32:64-S128"
target triple = "x86_64-pc-linux-gnu"

%struct.slurm_conf_t = type { i64, ptr, i16, ptr, ptr, ptr, ptr, ptr, i16, ptr, ptr, ptr, ptr, ptr, ptr, ptr, i16, ptr, ptr, ptr, ptr, i16, ptr, ptr, ptr, i64, ptr, ptr, ptr, ptr, i16, ptr, ptr, i16, i32, ptr, i32, ptr, i32, i32, ptr, ptr, i64, i64, ptr, i16, i16, ptr, i32, i32, ptr, i32, ptr, i32, i16, i16, i16, ptr, i16, i16, ptr, ptr, i32, i16, i16, ptr, i32, i16, ptr, ptr, ptr, ptr, i16, ptr, ptr, ptr, ptr, i32, ptr, ptr, ptr, ptr, i16, i16, ptr, i32, i32, i32, i16, i16, ptr, ptr, i16, ptr, ptr, i32, i32, i32, i32, i32, i64, i32, i32, i16, ptr, ptr, i32, ptr, ptr, ptr, i16, i32, ptr, ptr, i16, ptr, ptr, i32, i16, ptr, ptr, ptr, ptr, i32, i32, i16, i16, i32, ptr, i16, ptr, i32, i32, i32, i32, i32, i32, ptr, i16, ptr, ptr, i32, i16, ptr, i32, i16, i16, ptr, ptr, ptr, i16, ptr, ptr, ptr, ptr, i16, i16, ptr, i16, ptr, i16, ptr, i16, ptr, i16, ptr, ptr, ptr, ptr, i16, ptr, ptr, ptr, i32, ptr, i32, ptr, ptr, i16, ptr, ptr, i32, i16, ptr, ptr, i16, i16, ptr, i16, ptr, ptr, ptr, i32, ptr, i16, i16, ptr, ptr, ptr, ptr, ptr, ptr, ptr, ptr, i16, i32, i16, ptr, ptr, ptr, ptr, i32, ptr, ptr, ptr, i16, ptr, ptr, ptr, i16, ptr, i16, ptr, i16, i16, ptr }
%struct.job_feature_t = type { ptr, i16, i8, i16, i8, ptr, ptr, i16 }
%struct.node_features = type { i32, ptr, ptr }

@slurm_conf = external global %struct.slurm_conf_t, align 8
@active_feature_list = external global ptr, align 8
@node_record_count = external global i32, align 4
@avail_feature_list = external global ptr, align 8
@.str.40 = private unnamed_addr constant [3 x i8] c"OR\00", align 1
@.str.41 = private unnamed_addr constant [4 x i8] c"AND\00", align 1
@.str.42 = private unnamed_addr constant [4 x i8] c"MOR\00", align 1
@.str.43 = private unnamed_addr constant [5 x i8] c"XAND\00", align 1
@.str.44 = private unnamed_addr constant [4 x i8] c"END\00", align 1
@.str.45 = private unnamed_addr constant [11 x i8] c"UNKNOWN:%u\00", align 1
@.str.46 = private unnamed_addr constant [81 x i8] c"NODE_FEATURES: %s: FEAT:%s COUNT:%u BRACKET:%u PAREN:%d OP:%s ACTIVE:%s AVAIL:%s\00", align 1
@__func__._log_feature_nodes = private unnamed_addr constant [19 x i8] c"_log_feature_nodes\00", align 1

; Function Attrs: nounwind uwtable
define internal void @_log_feature_nodes(ptr noundef %0) #0 {
  %2 = alloca ptr, align 8
  %3 = alloca ptr, align 8
  %4 = alloca ptr, align 8
  %5 = alloca ptr, align 8
  %6 = alloca ptr, align 8
  %7 = alloca i32, align 4
  store ptr %0, ptr %2, align 8
  call void @llvm.lifetime.start.p0(i64 8, ptr %3) #8
  call void @llvm.lifetime.start.p0(i64 8, ptr %4) #8
  call void @llvm.lifetime.start.p0(i64 8, ptr %5) #8
  call void @llvm.lifetime.start.p0(i64 8, ptr %6) #8
  store ptr null, ptr %6, align 8
  %8 = load i64, ptr getelementptr inbounds nuw (%struct.slurm_conf_t, ptr @slurm_conf, i32 0, i32 42), align 8
  %9 = and i64 %8, 140737488355328
  %10 = icmp ne i64 %9, 0
  br i1 %10, label %12, label %11

11:                                               ; preds = %1
  store i32 1, ptr %7, align 4
  br label %99

12:                                               ; preds = %1
  %13 = load ptr, ptr %2, align 8
  %14 = getelementptr inbounds nuw %struct.job_feature_t, ptr %13, i32 0, i32 4
  %15 = load i8, ptr %14, align 2
  %16 = zext i8 %15 to i32
  %17 = icmp eq i32 %16, 0
  br i1 %17, label %18, label %19

18:                                               ; preds = %12
  store ptr @.str.40, ptr %5, align 8
  br label %57

19:                                               ; preds = %12
  %20 = load ptr, ptr %2, align 8
  %21 = getelementptr inbounds nuw %struct.job_feature_t, ptr %20, i32 0, i32 4
  %22 = load i8, ptr %21, align 2
  %23 = zext i8 %22 to i32
  %24 = icmp eq i32 %23, 1
  br i1 %24, label %25, label %26

25:                                               ; preds = %19
  store ptr @.str.41, ptr %5, align 8
  br label %56

26:                                               ; preds = %19
  %27 = load ptr, ptr %2, align 8
  %28 = getelementptr inbounds nuw %struct.job_feature_t, ptr %27, i32 0, i32 4
  %29 = load i8, ptr %28, align 2
  %30 = zext i8 %29 to i32
  %31 = icmp eq i32 %30, 2
  br i1 %31, label %32, label %33

32:                                               ; preds = %26
  store ptr @.str.42, ptr %5, align 8
  br label %55

33:                                               ; preds = %26
  %34 = load ptr, ptr %2, align 8
  %35 = getelementptr inbounds nuw %struct.job_feature_t, ptr %34, i32 0, i32 4
  %36 = load i8, ptr %35, align 2
  %37 = zext i8 %36 to i32
  %38 = icmp eq i32 %37, 3
  br i1 %38, label %39, label %40

39:                                               ; preds = %33
  store ptr @.str.43, ptr %5, align 8
  br label %54

40:                                               ; preds = %33
  %41 = load ptr, ptr %2, align 8
  %42 = getelementptr inbounds nuw %struct.job_feature_t, ptr %41, i32 0, i32 4
  %43 = load i8, ptr %42, align 2
  %44 = zext i8 %43 to i32
  %45 = icmp eq i32 %44, 4
  br i1 %45, label %46, label %47

46:                                               ; preds = %40
  store ptr @.str.44, ptr %5, align 8
  br label %53

47:                                               ; preds = %40
  %48 = load ptr, ptr %2, align 8
  %49 = getelementptr inbounds nuw %struct.job_feature_t, ptr %48, i32 0, i32 4
  %50 = load i8, ptr %49, align 2
  %51 = zext i8 %50 to i32
  call void (ptr, ptr, ...) @_xstrfmtcat(ptr noundef %6, ptr noundef @.str.45, i32 noundef %51)
  %52 = load ptr, ptr %6, align 8
  store ptr %52, ptr %5, align 8
  br label %53

53:                                               ; preds = %47, %46
  br label %54

54:                                               ; preds = %53, %39
  br label %55

55:                                               ; preds = %54, %32
  br label %56

56:                                               ; preds = %55, %25
  br label %57

57:                                               ; preds = %56, %18
  %58 = load ptr, ptr %2, align 8
  %59 = getelementptr inbounds nuw %struct.job_feature_t, ptr %58, i32 0, i32 5
  %60 = load ptr, ptr %59, align 8
  %61 = call ptr @bitmap2node_name(ptr noundef %60)
  store ptr %61, ptr %3, align 8
  %62 = load ptr, ptr %2, align 8
  %63 = getelementptr inbounds nuw %struct.job_feature_t, ptr %62, i32 0, i32 6
  %64 = load ptr, ptr %63, align 8
  %65 = call ptr @bitmap2node_name(ptr noundef %64)
  store ptr %65, ptr %4, align 8
  br label %66

66:                                               ; preds = %57
  %67 = load i64, ptr getelementptr inbounds nuw (%struct.slurm_conf_t, ptr @slurm_conf, i32 0, i32 42), align 8
  %68 = and i64 %67, 140737488355328
  %69 = icmp ne i64 %68, 0
  br i1 %69, label %70, label %96

70:                                               ; preds = %66
  br label %71

71:                                               ; preds = %70
  %72 = call i32 @get_log_level()
  %73 = icmp sge i32 %72, 4
  br i1 %73, label %74, label %93

74:                                               ; preds = %71
  %75 = load ptr, ptr %2, align 8
  %76 = getelementptr inbounds nuw %struct.job_feature_t, ptr %75, i32 0, i32 0
  %77 = load ptr, ptr %76, align 8
  %78 = load ptr, ptr %2, align 8
  %79 = getelementptr inbounds nuw %struct.job_feature_t, ptr %78, i32 0, i32 3
  %80 = load i16, ptr %79, align 4
  %81 = zext i16 %80 to i32
  %82 = load ptr, ptr %2, align 8
  %83 = getelementptr inbounds nuw %struct.job_feature_t, ptr %82, i32 0, i32 1
  %84 = load i16, ptr %83, align 8
  %85 = zext i16 %84 to i32
  %86 = load ptr, ptr %2, align 8
  %87 = getelementptr inbounds nuw %struct.job_feature_t, ptr %86, i32 0, i32 7
  %88 = load i16, ptr %87, align 8
  %89 = zext i16 %88 to i32
  %90 = load ptr, ptr %5, align 8
  %91 = load ptr, ptr %3, align 8
  %92 = load ptr, ptr %4, align 8
  call void (i32, ptr, ...) @log_var(i32 noundef 4, ptr noundef @.str.46, ptr noundef @__func__._log_feature_nodes, ptr noundef %77, i32 noundef %81, i32 noundef %85, i32 noundef %89, ptr noundef %90, ptr noundef %91, ptr noundef %92)
  br label %93

93:                                               ; preds = %74, %71
  br label %94

94:                                               ; preds = %93
  br label %95

95:                                               ; preds = %94
  br label %96

96:                                               ; preds = %95, %66
  br label %97

97:                                               ; preds = %96
  br label %98

98:                                               ; preds = %97
  call void @slurm_xfree(ptr noundef %3)
  call void @slurm_xfree(ptr noundef %4)
  call void @slurm_xfree(ptr noundef %6)
  store i32 0, ptr %7, align 4
  br label %99

99:                                               ; preds = %98, %11
  call void @llvm.lifetime.end.p0(i64 8, ptr %6) #8
  call void @llvm.lifetime.end.p0(i64 8, ptr %5) #8
  call void @llvm.lifetime.end.p0(i64 8, ptr %4) #8
  call void @llvm.lifetime.end.p0(i64 8, ptr %3) #8
  %100 = load i32, ptr %7, align 4
  switch i32 %100, label %102 [
    i32 0, label %101
    i32 1, label %101
  ]

101:                                              ; preds = %99, %99
  ret void

102:                                              ; preds = %99
  unreachable
}

; Function Attrs: nounwind uwtable
define dso_local void @find_feature_nodes(ptr noundef %0, i1 noundef zeroext %1) #0 {
  %3 = alloca ptr, align 8
  %4 = alloca i8, align 1
  %5 = alloca ptr, align 8
  %6 = alloca ptr, align 8
  %7 = alloca ptr, align 8
  %8 = alloca i32, align 4
  store ptr %0, ptr %3, align 8
  %9 = zext i1 %1 to i8
  store i8 %9, ptr %4, align 1
  call void @llvm.lifetime.start.p0(i64 8, ptr %5) #8
  call void @llvm.lifetime.start.p0(i64 8, ptr %6) #8
  call void @llvm.lifetime.start.p0(i64 8, ptr %7) #8
  %10 = load ptr, ptr %3, align 8
  %11 = icmp ne ptr %10, null
  br i1 %11, label %13, label %12

12:                                               ; preds = %2
  store i32 1, ptr %8, align 4
  br label %124

13:                                               ; preds = %2
  %14 = load ptr, ptr %3, align 8
  %15 = call ptr @list_iterator_create(ptr noundef %14)
  store ptr %15, ptr %5, align 8
  br label %16

16:                                               ; preds = %120, %13
  %17 = load ptr, ptr %5, align 8
  %18 = call ptr @list_next(ptr noundef %17)
  store ptr %18, ptr %6, align 8
  %19 = icmp ne ptr %18, null
  br i1 %19, label %20, label %122

20:                                               ; preds = %16
  br label %21

21:                                               ; preds = %20
  %22 = load ptr, ptr %6, align 8
  %23 = getelementptr inbounds nuw %struct.job_feature_t, ptr %22, i32 0, i32 5
  %24 = load ptr, ptr %23, align 8
  %25 = icmp ne ptr %24, null
  br i1 %25, label %26, label %29

26:                                               ; preds = %21
  %27 = load ptr, ptr %6, align 8
  %28 = getelementptr inbounds nuw %struct.job_feature_t, ptr %27, i32 0, i32 5
  call void @slurm_bit_free(ptr noundef %28)
  br label %29

29:                                               ; preds = %26, %21
  %30 = load ptr, ptr %6, align 8
  %31 = getelementptr inbounds nuw %struct.job_feature_t, ptr %30, i32 0, i32 5
  store ptr null, ptr %31, align 8
  br label %32

32:                                               ; preds = %29
  br label %33

33:                                               ; preds = %32
  br label %34

34:                                               ; preds = %33
  %35 = load ptr, ptr %6, align 8
  %36 = getelementptr inbounds nuw %struct.job_feature_t, ptr %35, i32 0, i32 6
  %37 = load ptr, ptr %36, align 8
  %38 = icmp ne ptr %37, null
  br i1 %38, label %39, label %42

39:                                               ; preds = %34
  %40 = load ptr, ptr %6, align 8
  %41 = getelementptr inbounds nuw %struct.job_feature_t, ptr %40, i32 0, i32 6
  call void @slurm_bit_free(ptr noundef %41)
  br label %42

42:                                               ; preds = %39, %34
  %43 = load ptr, ptr %6, align 8
  %44 = getelementptr inbounds nuw %struct.job_feature_t, ptr %43, i32 0, i32 6
  store ptr null, ptr %44, align 8
  br label %45

45:                                               ; preds = %42
  br label %46

46:                                               ; preds = %45
  %47 = load ptr, ptr @active_feature_list, align 8
  %48 = load ptr, ptr %6, align 8
  %49 = getelementptr inbounds nuw %struct.job_feature_t, ptr %48, i32 0, i32 0
  %50 = load ptr, ptr %49, align 8
  %51 = call ptr @list_find_first(ptr noundef %47, ptr noundef @list_find_feature, ptr noundef %50)
  store ptr %51, ptr %7, align 8
  %52 = load ptr, ptr %7, align 8
  %53 = icmp ne ptr %52, null
  br i1 %53, label %54, label %66

54:                                               ; preds = %46
  %55 = load ptr, ptr %7, align 8
  %56 = getelementptr inbounds nuw %struct.node_features, ptr %55, i32 0, i32 2
  %57 = load ptr, ptr %56, align 8
  %58 = icmp ne ptr %57, null
  br i1 %58, label %59, label %66

59:                                               ; preds = %54
  %60 = load ptr, ptr %7, align 8
  %61 = getelementptr inbounds nuw %struct.node_features, ptr %60, i32 0, i32 2
  %62 = load ptr, ptr %61, align 8
  %63 = call ptr @bit_copy(ptr noundef %62)
  %64 = load ptr, ptr %6, align 8
  %65 = getelementptr inbounds nuw %struct.job_feature_t, ptr %64, i32 0, i32 5
  store ptr %63, ptr %65, align 8
  br label %72

66:                                               ; preds = %54, %46
  %67 = load i32, ptr @node_record_count, align 4
  %68 = sext i32 %67 to i64
  %69 = call ptr @bit_alloc(i64 noundef %68)
  %70 = load ptr, ptr %6, align 8
  %71 = getelementptr inbounds nuw %struct.job_feature_t, ptr %70, i32 0, i32 5
  store ptr %69, ptr %71, align 8
  br label %72

72:                                               ; preds = %66, %59
  %73 = load i8, ptr %4, align 1, !range !12, !noundef !13
  %74 = trunc i8 %73 to i1
  br i1 %74, label %75, label %107

75:                                               ; preds = %72
  %76 = load ptr, ptr %6, align 8
  %77 = getelementptr inbounds nuw %struct.job_feature_t, ptr %76, i32 0, i32 2
  %78 = load i8, ptr %77, align 2, !range !12, !noundef !13
  %79 = trunc i8 %78 to i1
  br i1 %79, label %80, label %107

80:                                               ; preds = %75
  %81 = load ptr, ptr @avail_feature_list, align 8
  %82 = load ptr, ptr %6, align 8
  %83 = getelementptr inbounds nuw %struct.job_feature_t, ptr %82, i32 0, i32 0
  %84 = load ptr, ptr %83, align 8
  %85 = call ptr @list_find_first(ptr noundef %81, ptr noundef @list_find_feature, ptr noundef %84)
  store ptr %85, ptr %7, align 8
  %86 = load ptr, ptr %7, align 8
  %87 = icmp ne ptr %86, null
  br i1 %87, label %88, label %100

88:                                               ; preds = %80
  %89 = load ptr, ptr %7, align 8
  %90 = getelementptr inbounds nuw %struct.node_features, ptr %89, i32 0, i32 2
  %91 = load ptr, ptr %90, align 8
  %92 = icmp ne ptr %91, null
  br i1 %92, label %93, label %100

93:                                               ; preds = %88
  %94 = load ptr, ptr %7, align 8
  %95 = getelementptr inbounds nuw %struct.node_features, ptr %94, i32 0, i32 2
  %96 = load ptr, ptr %95, align 8
  %97 = call ptr @bit_copy(ptr noundef %96)
  %98 = load ptr, ptr %6, align 8
  %99 = getelementptr inbounds nuw %struct.job_feature_t, ptr %98, i32 0, i32 6
  store ptr %97, ptr %99, align 8
  br label %106

100:                                              ; preds = %88, %80
  %101 = load i32, ptr @node_record_count, align 4
  %102 = sext i32 %101 to i64
  %103 = call ptr @bit_alloc(i64 noundef %102)
  %104 = load ptr, ptr %6, align 8
  %105 = getelementptr inbounds nuw %struct.job_feature_t, ptr %104, i32 0, i32 6
  store ptr %103, ptr %105, align 8
  br label %106

106:                                              ; preds = %100, %93
  br label %120

107:                                              ; preds = %75, %72
  %108 = load ptr, ptr %6, align 8
  %109 = getelementptr inbounds nuw %struct.job_feature_t, ptr %108, i32 0, i32 5
  %110 = load ptr, ptr %109, align 8
  %111 = icmp ne ptr %110, null
  br i1 %111, label %112, label %119

112:                                              ; preds = %107
  %113 = load ptr, ptr %6, align 8
  %114 = getelementptr inbounds nuw %struct.job_feature_t, ptr %113, i32 0, i32 5
  %115 = load ptr, ptr %114, align 8
  %116 = call ptr @bit_copy(ptr noundef %115)
  %117 = load ptr, ptr %6, align 8
  %118 = getelementptr inbounds nuw %struct.job_feature_t, ptr %117, i32 0, i32 6
  store ptr %116, ptr %118, align 8
  br label %119

119:                                              ; preds = %112, %107
  br label %120

120:                                              ; preds = %119, %106
  %121 = load ptr, ptr %6, align 8
  call void @_log_feature_nodes(ptr noundef %121)
  br label %16, !llvm.loop !18

122:                                              ; preds = %16
  %123 = load ptr, ptr %5, align 8
  call void @list_iterator_destroy(ptr noundef %123)
  store i32 0, ptr %8, align 4
  br label %124

124:                                              ; preds = %122, %12
  call void @llvm.lifetime.end.p0(i64 8, ptr %7) #8
  call void @llvm.lifetime.end.p0(i64 8, ptr %6) #8
  call void @llvm.lifetime.end.p0(i64 8, ptr %5) #8
  %125 = load i32, ptr %8, align 4
  switch i32 %125, label %127 [
    i32 0, label %126
    i32 1, label %126
  ]

126:                                              ; preds = %124, %124
  ret void

127:                                              ; preds = %124
  unreachable
}