; Function Attrs: nounwind uwtable
define dso_local void @find_feature_nodes(ptr noundef %0, i1 noundef zeroext %1) local_unnamed_addr #0 {
  %3 = alloca ptr, align 8
  %4 = alloca ptr, align 8
  %5 = alloca ptr, align 8
  %.not = icmp eq ptr %0, null
  br i1 %.not, label %84, label %6

6:                                                ; preds = %2
  %7 = tail call ptr @list_iterator_create(ptr noundef nonnull %0) #14
  %8 = tail call ptr @list_next(ptr noundef %7) #14
  %.not3341 = icmp eq ptr %8, null
  br i1 %.not3341, label %._crit_edge, label %.lr.ph

.lr.ph:                                           ; preds = %6, %_log_feature_nodes.exit
  %9 = phi ptr [ %83, %_log_feature_nodes.exit ], [ %8, %6 ]
  %10 = getelementptr inbounds nuw i8, ptr %9, i64 16
  %11 = load ptr, ptr %10, align 8
  %.not34 = icmp eq ptr %11, null
  br i1 %.not34, label %13, label %12

12:                                               ; preds = %.lr.ph
  call void @slurm_bit_free(ptr noundef nonnull %10) #14
  br label %13

13:                                               ; preds = %12, %.lr.ph
  store ptr null, ptr %10, align 8
  %14 = getelementptr inbounds nuw i8, ptr %9, i64 24
  %15 = load ptr, ptr %14, align 8
  %.not35 = icmp eq ptr %15, null
  br i1 %.not35, label %17, label %16

16:                                               ; preds = %13
  call void @slurm_bit_free(ptr noundef nonnull %14) #14
  br label %17

17:                                               ; preds = %16, %13
  store ptr null, ptr %14, align 8
  %18 = load ptr, ptr @active_feature_list, align 8
  %19 = load ptr, ptr %9, align 8
  %20 = call ptr @list_find_first(ptr noundef %18, ptr noundef nonnull @list_find_feature, ptr noundef %19) #14
  %.not36 = icmp eq ptr %20, null
  br i1 %.not36, label %26, label %21

21:                                               ; preds = %17
  %22 = getelementptr inbounds nuw i8, ptr %20, i64 16
  %23 = load ptr, ptr %22, align 8
  %.not37 = icmp eq ptr %23, null
  br i1 %.not37, label %26, label %24

24:                                               ; preds = %21
  %25 = call ptr @bit_copy(ptr noundef nonnull %23) #14
  br label %30

26:                                               ; preds = %21, %17
  %27 = load i32, ptr @node_record_count, align 4
  %28 = sext i32 %27 to i64
  %29 = call ptr @bit_alloc(i64 noundef %28) #14
  br label %30

30:                                               ; preds = %26, %24
  %storemerge = phi ptr [ %29, %26 ], [ %25, %24 ]
  store ptr %storemerge, ptr %10, align 8
  br i1 %1, label %31, label %48

31:                                               ; preds = %30
  %32 = getelementptr inbounds nuw i8, ptr %9, i64 10
  %33 = load i8, ptr %32, align 2, !range !12, !noundef !13
  %34 = trunc nuw i8 %33 to i1
  br i1 %34, label %35, label %48

35:                                               ; preds = %31
  %36 = load ptr, ptr @avail_feature_list, align 8
  %37 = load ptr, ptr %9, align 8
  %38 = call ptr @list_find_first(ptr noundef %36, ptr noundef nonnull @list_find_feature, ptr noundef %37) #14
  %.not39 = icmp eq ptr %38, null
  br i1 %.not39, label %44, label %39

39:                                               ; preds = %35
  %40 = getelementptr inbounds nuw i8, ptr %38, i64 16
  %41 = load ptr, ptr %40, align 8
  %.not40 = icmp eq ptr %41, null
  br i1 %.not40, label %44, label %42

42:                                               ; preds = %39
  %43 = call ptr @bit_copy(ptr noundef nonnull %41) #14
  br label %.sink.split

44:                                               ; preds = %39, %35
  %45 = load i32, ptr @node_record_count, align 4
  %46 = sext i32 %45 to i64
  %47 = call ptr @bit_alloc(i64 noundef %46) #14
  br label %.sink.split

48:                                               ; preds = %31, %30
  %.not38 = icmp eq ptr %storemerge, null
  br i1 %.not38, label %51, label %49

49:                                               ; preds = %48
  %50 = call ptr @bit_copy(ptr noundef nonnull %storemerge) #14
  br label %.sink.split

.sink.split:                                      ; preds = %44, %42, %49
  %.sink = phi ptr [ %50, %49 ], [ %43, %42 ], [ %47, %44 ]
  store ptr %.sink, ptr %14, align 8
  br label %51

51:                                               ; preds = %.sink.split, %48
  call void @llvm.lifetime.start.p0(i64 8, ptr nonnull %3) #14
  call void @llvm.lifetime.start.p0(i64 8, ptr nonnull %4) #14
  call void @llvm.lifetime.start.p0(i64 8, ptr nonnull %5) #14
  store ptr null, ptr %5, align 8
  %52 = load i64, ptr getelementptr inbounds nuw (i8, ptr @slurm_conf, i64 320), align 8
  %53 = and i64 %52, 140737488355328
  %.not.i = icmp eq i64 %53, 0
  br i1 %.not.i, label %_log_feature_nodes.exit, label %54

54:                                               ; preds = %51
  %55 = getelementptr inbounds nuw i8, ptr %9, i64 14
  %56 = load i8, ptr %55, align 2
  %57 = icmp ult i8 %56, 5
  br i1 %57, label %switch.lookup, label %58

58:                                               ; preds = %54
  %59 = zext i8 %56 to i32
  call void (ptr, ptr, ...) @_xstrfmtcat(ptr noundef nonnull %5, ptr noundef nonnull @.str.45, i32 noundef %59) #14
  br label %61

switch.lookup:                                    ; preds = %54
  %60 = zext nneg i8 %56 to i64
  %switch.gep = getelementptr inbounds nuw [5 x ptr], ptr @switch.table.find_feature_nodes, i64 0, i64 %60
  br label %61

61:                                               ; preds = %switch.lookup, %58
  %.0.i.in = phi ptr [ %5, %58 ], [ %switch.gep, %switch.lookup ]
  %.0.i = load ptr, ptr %.0.i.in, align 8
  %62 = load ptr, ptr %10, align 8
  %63 = call ptr @bitmap2node_name(ptr noundef %62) #14
  store ptr %63, ptr %3, align 8
  %64 = load ptr, ptr %14, align 8
  %65 = call ptr @bitmap2node_name(ptr noundef %64) #14
  store ptr %65, ptr %4, align 8
  %66 = load i64, ptr getelementptr inbounds nuw (i8, ptr @slurm_conf, i64 320), align 8
  %67 = and i64 %66, 140737488355328
  %.not14.i = icmp eq i64 %67, 0
  br i1 %.not14.i, label %82, label %68

68:                                               ; preds = %61
  %69 = call i32 @get_log_level() #14
  %70 = icmp sgt i32 %69, 3
  br i1 %70, label %71, label %82

71:                                               ; preds = %68
  %72 = load ptr, ptr %9, align 8
  %73 = getelementptr inbounds nuw i8, ptr %9, i64 12
  %74 = load i16, ptr %73, align 4
  %75 = zext i16 %74 to i32
  %76 = getelementptr inbounds nuw i8, ptr %9, i64 8
  %77 = load i16, ptr %76, align 8
  %78 = zext i16 %77 to i32
  %79 = getelementptr inbounds nuw i8, ptr %9, i64 32
  %80 = load i16, ptr %79, align 8
  %81 = zext i16 %80 to i32
  call void (i32, ptr, ...) @log_var(i32 noundef 4, ptr noundef nonnull @.str.46, ptr noundef nonnull @__func__._log_feature_nodes, ptr noundef %72, i32 noundef %75, i32 noundef %78, i32 noundef %81, ptr noundef %.0.i, ptr noundef %63, ptr noundef %65) #14
  br label %82

82:                                               ; preds = %71, %68, %61
  call void @slurm_xfree(ptr noundef nonnull %3) #14
  call void @slurm_xfree(ptr noundef nonnull %4) #14
  call void @slurm_xfree(ptr noundef nonnull %5) #14
  br label %_log_feature_nodes.exit

_log_feature_nodes.exit:                          ; preds = %51, %82
  call void @llvm.lifetime.end.p0(i64 8, ptr nonnull %5) #14
  call void @llvm.lifetime.end.p0(i64 8, ptr nonnull %4) #14
  call void @llvm.lifetime.end.p0(i64 8, ptr nonnull %3) #14
  %83 = call ptr @list_next(ptr noundef %7) #14
  %.not33 = icmp eq ptr %83, null
  br i1 %.not33, label %._crit_edge, label %.lr.ph, !llvm.loop !18

._crit_edge:                                      ; preds = %_log_feature_nodes.exit, %6
  call void @list_iterator_destroy(ptr noundef %7) #14
  br label %84

84:                                               ; preds = %2, %._crit_edge
  ret void
}